; Function Attrs: mustprogress uwtable
define void @_ZN6casadi6MatrixIdE10expm_constERKS1_S3_(ptr dead_on_unwind noalias writable sret(%"class.casadi::Matrix") align 8 %0, ptr noundef nonnull align 8 dereferenceable(40) %1, ptr noundef nonnull align 8 dereferenceable(40) %2) local_unnamed_addr #4 align 2 personality ptr @__gxx_personality_v0 {
  %4 = alloca %"class.casadi::Matrix", align 8
  call void @llvm.lifetime.start.p0(i64 40, ptr nonnull %4) #31
  %5 = getelementptr inbounds nuw i8, ptr %1, i64 8
  %6 = tail call noundef zeroext i1 @_ZNK6casadi8Sparsity9is_scalarEb(ptr noundef nonnull align 8 dereferenceable(8) %5, i1 noundef zeroext false), !noalias !1701
  br i1 %6, label %7, label %8

7:                                                ; preds = %3
  call void @_ZN6casadi6MatrixIdE13scalar_matrixExRKS1_S3_(ptr dead_on_unwind nonnull writable sret(%"class.casadi::Matrix") align 8 %4, i64 noundef 3, ptr noundef nonnull align 8 dereferenceable(40) %1, ptr noundef nonnull align 8 dereferenceable(40) %2)
  br label %_ZN6casadimlERKNS_6MatrixIdEES3_.exit

8:                                                ; preds = %3
  %9 = getelementptr inbounds nuw i8, ptr %2, i64 8
  %10 = tail call noundef zeroext i1 @_ZNK6casadi8Sparsity9is_scalarEb(ptr noundef nonnull align 8 dereferenceable(8) %9, i1 noundef zeroext false), !noalias !1701
  br i1 %10, label %11, label %12

11:                                               ; preds = %8
  call void @_ZN6casadi6MatrixIdE13matrix_scalarExRKS1_S3_(ptr dead_on_unwind nonnull writable sret(%"class.casadi::Matrix") align 8 %4, i64 noundef 3, ptr noundef nonnull align 8 dereferenceable(40) %1, ptr noundef nonnull align 8 dereferenceable(40) %2)
  br label %_ZN6casadimlERKNS_6MatrixIdEES3_.exit

12:                                               ; preds = %8
  call void @_ZN6casadi6MatrixIdE13matrix_matrixExRKS1_S3_(ptr dead_on_unwind nonnull writable sret(%"class.casadi::Matrix") align 8 %4, i64 noundef 3, ptr noundef nonnull align 8 dereferenceable(40) %1, ptr noundef nonnull align 8 dereferenceable(40) %2)
  br label %_ZN6casadimlERKNS_6MatrixIdEES3_.exit

_ZN6casadimlERKNS_6MatrixIdEES3_.exit:            ; preds = %7, %11, %12
  invoke void @_ZN6casadi6MatrixIdE4expmERKS1_(ptr dead_on_unwind writable sret(%"class.casadi::Matrix") align 8 %0, ptr noundef nonnull align 8 dereferenceable(40) %4)
          to label %13 unwind label %26

13:                                               ; preds = %_ZN6casadimlERKNS_6MatrixIdEES3_.exit
  %14 = getelementptr inbounds nuw i8, ptr %4, i64 16
  %15 = load ptr, ptr %14, align 8, !tbaa !14
  %.not.i.i.i.i = icmp eq ptr %15, null
  br i1 %.not.i.i.i.i, label %_ZNSt6vectorIdSaIdEED2Ev.exit.i, label %16

16:                                               ; preds = %13
  %17 = getelementptr inbounds nuw i8, ptr %4, i64 32
  %18 = load ptr, ptr %17, align 8, !tbaa !16
  %19 = ptrtoint ptr %18 to i64
  %20 = ptrtoint ptr %15 to i64
  %21 = sub i64 %19, %20
  call void @_ZdlPvm(ptr noundef nonnull %15, i64 noundef %21) #30
  br label %_ZNSt6vectorIdSaIdEED2Ev.exit.i

_ZNSt6vectorIdSaIdEED2Ev.exit.i:                  ; preds = %16, %13
  %22 = getelementptr inbounds nuw i8, ptr %4, i64 8
  invoke void @_ZN6casadi13GenericSharedINS_12SharedObjectENS_20SharedObjectInternalEE10count_downEv(ptr noundef nonnull align 8 dereferenceable(8) %22)
          to label %_ZN6casadi6MatrixIdED2Ev.exit unwind label %23

23:                                               ; preds = %_ZNSt6vectorIdSaIdEED2Ev.exit.i
  %24 = landingpad { ptr, i32 }
          catch ptr null
  %25 = extractvalue { ptr, i32 } %24, 0
  call void @__clang_call_terminate(ptr %25) #29
  unreachable

_ZN6casadi6MatrixIdED2Ev.exit:                    ; preds = %_ZNSt6vectorIdSaIdEED2Ev.exit.i
  call void @llvm.lifetime.end.p0(i64 40, ptr nonnull %4) #31
  ret void

26:                                               ; preds = %_ZN6casadimlERKNS_6MatrixIdEES3_.exit
  %27 = landingpad { ptr, i32 }
          cleanup
  call void @_ZN6casadi6MatrixIdED2Ev(ptr noundef nonnull align 8 dereferenceable(40) %4) #31
  call void @llvm.lifetime.end.p0(i64 40, ptr nonnull %4) #31
  resume { ptr, i32 } %27
}